; Function Attrs: nofree norecurse nosync nounwind memory(argmem: readwrite) uwtable
define void @ZSTDv04_findFrameSizeInfoLegacy(ptr noundef %0, i64 noundef %1, ptr noundef writeonly captures(none) %2, ptr noundef writeonly captures(none) %3) local_unnamed_addr #0 {
  %5 = icmp ult i64 %1, 5
  br i1 %5, label %6, label %7

6:                                                ; preds = %4
  store i64 -72, ptr %2, align 8, !tbaa !3
  br label %.thread50

7:                                                ; preds = %4
  %.val = load i32, ptr %0, align 1
  %.not = icmp eq i32 %.val, -47205084
  br i1 %.not, label %9, label %8

8:                                                ; preds = %7
  store i64 -10, ptr %2, align 8, !tbaa !3
  br label %.thread50

9:                                                ; preds = %7
  %10 = add i64 %1, -5
  %11 = icmp ult i64 %10, 3
  br i1 %11, label %._crit_edge, label %.lr.ph.preheader

.lr.ph.preheader:                                 ; preds = %9
  %12 = getelementptr inbounds nuw i8, ptr %0, i64 5
  br label %.lr.ph

.lr.ph:                                           ; preds = %.lr.ph.preheader, %.thread85
  %.073 = phi ptr [ %38, %.thread85 ], [ %12, %.lr.ph.preheader ]
  %.03472 = phi i64 [ %40, %.thread85 ], [ 0, %.lr.ph.preheader ]
  %.03671 = phi i64 [ %39, %.thread85 ], [ %10, %.lr.ph.preheader ]
  %13 = load i8, ptr %.073, align 1, !tbaa !7
  %14 = zext i8 %13 to i32
  %15 = lshr i32 %14, 6
  switch i32 %15, label %16 [
    i32 3, label %.loopexit
    i32 2, label %.thread
  ]

._crit_edge:                                      ; preds = %.thread85, %9
  store i64 -72, ptr %2, align 8, !tbaa !3
  br label %.thread50

16:                                               ; preds = %.lr.ph
  %17 = shl nuw nsw i32 %14, 16
  %18 = and i32 %17, 458752
  %19 = getelementptr inbounds nuw i8, ptr %.073, i64 2
  %20 = load i8, ptr %19, align 1, !tbaa !7
  %21 = zext i8 %20 to i32
  %22 = or disjoint i32 %18, %21
  %23 = getelementptr inbounds nuw i8, ptr %.073, i64 1
  %24 = load i8, ptr %23, align 1, !tbaa !7
  %25 = zext i8 %24 to i32
  %26 = shl nuw nsw i32 %25, 8
  %27 = or disjoint i32 %26, %22
  %28 = zext nneg i32 %27 to i64
  %29 = add i64 %.03671, -3
  %30 = icmp ult i64 %29, %28
  br i1 %30, label %33, label %34

.thread:                                          ; preds = %.lr.ph
  %31 = add i64 %.03671, -3
  %32 = icmp eq i64 %31, 0
  br i1 %32, label %33, label %.thread85

33:                                               ; preds = %.thread, %16
  store i64 -72, ptr %2, align 8, !tbaa !3
  br label %.thread50

34:                                               ; preds = %16
  %35 = icmp eq i32 %27, 0
  br i1 %35, label %.loopexit, label %.thread85

.thread85:                                        ; preds = %.thread, %34
  %.0.i.ph8487 = phi i64 [ %28, %34 ], [ 1, %.thread ]
  %36 = phi i64 [ %29, %34 ], [ %31, %.thread ]
  %37 = getelementptr inbounds nuw i8, ptr %.073, i64 3
  %38 = getelementptr inbounds nuw i8, ptr %37, i64 %.0.i.ph8487
  %39 = sub i64 %36, %.0.i.ph8487
  %40 = add i64 %.03472, 1
  %41 = icmp ult i64 %39, 3
  br i1 %41, label %._crit_edge, label %.lr.ph

.loopexit:                                        ; preds = %34, %.lr.ph
  %.1.ph = getelementptr inbounds nuw i8, ptr %.073, i64 3
  %42 = ptrtoint ptr %.1.ph to i64
  %43 = ptrtoint ptr %0 to i64
  %44 = sub i64 %42, %43
  store i64 %44, ptr %2, align 8, !tbaa !3
  %45 = shl i64 %.03472, 17
  br label %.thread50

.thread50:                                        ; preds = %33, %._crit_edge, %.loopexit, %8, %6
  %.sink = phi i64 [ -2, %33 ], [ -2, %._crit_edge ], [ %45, %.loopexit ], [ -2, %8 ], [ -2, %6 ]
  store i64 %.sink, ptr %3, align 8, !tbaa !8
  ret void
}